target datalayout = "e-m:e-p270:32:32-p271:32:32-p272:64:64-i64:64-i128:128-f80:128-n8:16:32:64-S128"
target triple = "x86_64-pc-linux-gnu"

%union.av_intfloat32 = type { i32 }

; Function Attrs: alwaysinline nounwind uwtable
define internal float @av_int2float(i32 noundef %0) #4 {
  %2 = alloca i32, align 4
  %3 = alloca %union.av_intfloat32, align 4
  store i32 %0, ptr %2, align 4, !tbaa !38
  call void @llvm.lifetime.start.p0(i64 4, ptr %3) #11
  %4 = load i32, ptr %2, align 4, !tbaa !38
  store i32 %4, ptr %3, align 4, !tbaa !47
  %5 = load float, ptr %3, align 4, !tbaa !47
  call void @llvm.lifetime.end.p0(i64 4, ptr %3) #11
  ret float %5
}

; Function Attrs: inlinehint nounwind uwtable
define internal float @speex_rand(float noundef %0, ptr noundef %1) #6 {
  %3 = alloca float, align 4
  %4 = alloca ptr, align 8
  %5 = alloca i32, align 4
  %6 = alloca i32, align 4
  %7 = alloca float, align 4
  %8 = alloca i32, align 4
  store float %0, ptr %3, align 4, !tbaa !64
  store ptr %1, ptr %4, align 8, !tbaa !61
  call void @llvm.lifetime.start.p0(i64 4, ptr %5) #11
  store i32 1065353216, ptr %5, align 4, !tbaa !38
  call void @llvm.lifetime.start.p0(i64 4, ptr %6) #11
  store i32 8388607, ptr %6, align 4, !tbaa !38
  call void @llvm.lifetime.start.p0(i64 4, ptr %7) #11
  call void @llvm.lifetime.start.p0(i64 4, ptr %8) #11
  %9 = load ptr, ptr %4, align 8, !tbaa !61
  %10 = getelementptr inbounds i32, ptr %9, i64 0
  %11 = load i32, ptr %10, align 4, !tbaa !38
  %12 = mul i32 1664525, %11
  %13 = add i32 %12, 1013904223
  %14 = load ptr, ptr %4, align 8, !tbaa !61
  %15 = getelementptr inbounds i32, ptr %14, i64 0
  store i32 %13, ptr %15, align 4, !tbaa !38
  %16 = load ptr, ptr %4, align 8, !tbaa !61
  %17 = getelementptr inbounds i32, ptr %16, i64 0
  %18 = load i32, ptr %17, align 4, !tbaa !38
  %19 = and i32 8388607, %18
  %20 = or i32 1065353216, %19
  store i32 %20, ptr %8, align 4, !tbaa !38
  %21 = load i32, ptr %8, align 4, !tbaa !38
  %22 = call nsz float @av_int2float(i32 noundef %21)
  store float %22, ptr %7, align 4, !tbaa !64
  %23 = load float, ptr %7, align 4, !tbaa !64
  %24 = fsub nsz float %23, 1.500000e+00
  store float %24, ptr %7, align 4, !tbaa !64
  %25 = load float, ptr %3, align 4, !tbaa !64
  %26 = load float, ptr %7, align 4, !tbaa !64
  %27 = fmul nsz float %26, %25
  store float %27, ptr %7, align 4, !tbaa !64
  %28 = load float, ptr %7, align 4, !tbaa !64
  call void @llvm.lifetime.end.p0(i64 4, ptr %8) #11
  call void @llvm.lifetime.end.p0(i64 4, ptr %7) #11
  call void @llvm.lifetime.end.p0(i64 4, ptr %6) #11
  call void @llvm.lifetime.end.p0(i64 4, ptr %5) #11
  ret float %28
}

; Function Attrs: nounwind uwtable
define internal void @noise_codebook_unquant(ptr noundef %0, ptr noundef %1, i32 noundef %2, ptr noundef %3, ptr noundef %4) #1 {
  %6 = alloca ptr, align 8
  %7 = alloca ptr, align 8
  %8 = alloca i32, align 4
  %9 = alloca ptr, align 8
  %10 = alloca ptr, align 8
  %11 = alloca i32, align 4
  store ptr %0, ptr %6, align 8, !tbaa !75
  store ptr %1, ptr %7, align 8, !tbaa !123
  store i32 %2, ptr %8, align 4, !tbaa !38
  store ptr %3, ptr %9, align 8, !tbaa !124
  store ptr %4, ptr %10, align 8, !tbaa !61
  call void @llvm.lifetime.start.p0(i64 4, ptr %11) #11
  store i32 0, ptr %11, align 4, !tbaa !38
  br label %12

12:                                               ; preds = %24, %5
  %13 = load i32, ptr %11, align 4, !tbaa !38
  %14 = load i32, ptr %8, align 4, !tbaa !38
  %15 = icmp slt i32 %13, %14
  br i1 %15, label %17, label %16

16:                                               ; preds = %12
  call void @llvm.lifetime.end.p0(i64 4, ptr %11) #11
  br label %27

17:                                               ; preds = %12
  %18 = load ptr, ptr %10, align 8, !tbaa !61
  %19 = call nsz float @speex_rand(float noundef 1.000000e+00, ptr noundef %18)
  %20 = load ptr, ptr %6, align 8, !tbaa !75
  %21 = load i32, ptr %11, align 4, !tbaa !38
  %22 = sext i32 %21 to i64
  %23 = getelementptr inbounds float, ptr %20, i64 %22
  store float %19, ptr %23, align 4, !tbaa !64
  br label %24

24:                                               ; preds = %17
  %25 = load i32, ptr %11, align 4, !tbaa !38
  %26 = add nsw i32 %25, 1
  store i32 %26, ptr %11, align 4, !tbaa !38
  br label %12, !llvm.loop !198

27:                                               ; preds = %16
  ret void
}