; Function Attrs: nofree norecurse nosync nounwind memory(argmem: readwrite) uwtable
define internal void @noise_codebook_unquant(ptr noundef writeonly captures(none) %0, ptr readnone captures(none) %1, i32 noundef %2, ptr readnone captures(none) %3, ptr noundef captures(none) %4) #8 {
  %6 = icmp sgt i32 %2, 0
  br i1 %6, label %.lr.ph, label %7

.lr.ph:                                           ; preds = %5
  %.promoted = load i32, ptr %4, align 4, !tbaa !113
  %wide.trip.count = zext nneg i32 %2 to i64
  br label %8

._crit_edge:                                      ; preds = %8
  store i32 %11, ptr %4, align 4, !tbaa !113
  br label %7

7:                                                ; preds = %._crit_edge, %5
  ret void

8:                                                ; preds = %.lr.ph, %8
  %indvars.iv = phi i64 [ 0, %.lr.ph ], [ %indvars.iv.next, %8 ]
  %9 = phi i32 [ %.promoted, %.lr.ph ], [ %11, %8 ]
  %10 = mul i32 %9, 1664525
  %11 = add i32 %10, 1013904223
  %12 = and i32 %11, 8388607
  %13 = or disjoint i32 %12, 1065353216
  %14 = bitcast i32 %13 to float
  %15 = fadd nsz float %14, -1.500000e+00
  %16 = getelementptr inbounds nuw float, ptr %0, i64 %indvars.iv
  store float %15, ptr %16, align 4, !tbaa !105
  %indvars.iv.next = add nuw nsw i64 %indvars.iv, 1
  %exitcond.not = icmp eq i64 %indvars.iv.next, %wide.trip.count
  br i1 %exitcond.not, label %._crit_edge, label %8, !llvm.loop !183
}